target datalayout = "e-m:e-p270:32:32-p271:32:32-p272:64:64-i64:64-i128:128-f80:128-n8:16:32:64-S128"
target triple = "x86_64-pc-linux-gnu"

%struct.AVFrame = type { [8 x ptr], [8 x i32], ptr, i32, i32, i32, i32, i32, %struct.AVRational, i64, i64, %struct.AVRational, i32, ptr, i32, i32, [8 x ptr], ptr, i32, ptr, i32, i32, i32, i32, i32, i32, i32, i64, ptr, i32, ptr, ptr, i64, i64, i64, i64, ptr, %struct.AVChannelLayout, i64 }
%struct.AVRational = type { i32, i32 }
%struct.AVChannelLayout = type { i32, i32, %union.anon, ptr }
%union.anon = type { i64 }

; Function Attrs: nounwind uwtable
define internal i32 @frame_ref(ptr noundef %0, ptr noundef %1) #0 {
  %3 = alloca i32, align 4
  %4 = alloca ptr, align 8
  %5 = alloca ptr, align 8
  %6 = alloca i32, align 4
  %7 = alloca i32, align 4
  store ptr %0, ptr %4, align 8, !tbaa !132
  store ptr %1, ptr %5, align 8, !tbaa !132
  call void @llvm.lifetime.start.p0(i64 4, ptr %6) #11
  store i32 0, ptr %6, align 4, !tbaa !14
  br label %8

8:                                                ; preds = %44, %2
  %9 = load i32, ptr %6, align 4, !tbaa !14
  %10 = sext i32 %9 to i64
  %11 = icmp ult i64 %10, 8
  br i1 %11, label %13, label %12

12:                                               ; preds = %8
  store i32 2, ptr %7, align 4
  br label %47

13:                                               ; preds = %8
  %14 = load ptr, ptr %5, align 8, !tbaa !132
  %15 = getelementptr inbounds nuw %struct.AVFrame, ptr %14, i32 0, i32 16
  %16 = load i32, ptr %6, align 4, !tbaa !14
  %17 = sext i32 %16 to i64
  %18 = getelementptr inbounds [8 x ptr], ptr %15, i64 0, i64 %17
  %19 = load ptr, ptr %18, align 8, !tbaa !133
  %20 = icmp ne ptr %19, null
  br i1 %20, label %22, label %21

21:                                               ; preds = %13
  br label %44

22:                                               ; preds = %13
  %23 = load ptr, ptr %5, align 8, !tbaa !132
  %24 = getelementptr inbounds nuw %struct.AVFrame, ptr %23, i32 0, i32 16
  %25 = load i32, ptr %6, align 4, !tbaa !14
  %26 = sext i32 %25 to i64
  %27 = getelementptr inbounds [8 x ptr], ptr %24, i64 0, i64 %26
  %28 = load ptr, ptr %27, align 8, !tbaa !133
  %29 = call ptr @av_buffer_ref(ptr noundef %28)
  %30 = load ptr, ptr %4, align 8, !tbaa !132
  %31 = getelementptr inbounds nuw %struct.AVFrame, ptr %30, i32 0, i32 16
  %32 = load i32, ptr %6, align 4, !tbaa !14
  %33 = sext i32 %32 to i64
  %34 = getelementptr inbounds [8 x ptr], ptr %31, i64 0, i64 %33
  store ptr %29, ptr %34, align 8, !tbaa !133
  %35 = load ptr, ptr %4, align 8, !tbaa !132
  %36 = getelementptr inbounds nuw %struct.AVFrame, ptr %35, i32 0, i32 16
  %37 = load i32, ptr %6, align 4, !tbaa !14
  %38 = sext i32 %37 to i64
  %39 = getelementptr inbounds [8 x ptr], ptr %36, i64 0, i64 %38
  %40 = load ptr, ptr %39, align 8, !tbaa !133
  %41 = icmp ne ptr %40, null
  br i1 %41, label %43, label %42

42:                                               ; preds = %22
  store i32 -12, ptr %3, align 4
  store i32 1, ptr %7, align 4
  br label %47

43:                                               ; preds = %22
  br label %44

44:                                               ; preds = %43, %21
  %45 = load i32, ptr %6, align 4, !tbaa !14
  %46 = add nsw i32 %45, 1
  store i32 %46, ptr %6, align 4, !tbaa !14
  br label %8, !llvm.loop !206

47:                                               ; preds = %42, %12
  call void @llvm.lifetime.end.p0(i64 4, ptr %6) #11
  %48 = load i32, ptr %7, align 4
  switch i32 %48, label %64 [
    i32 2, label %49
    i32 1, label %62
  ]

49:                                               ; preds = %47
  %50 = load ptr, ptr %4, align 8, !tbaa !132
  %51 = getelementptr inbounds nuw %struct.AVFrame, ptr %50, i32 0, i32 0
  %52 = getelementptr inbounds [8 x ptr], ptr %51, i64 0, i64 0
  %53 = load ptr, ptr %5, align 8, !tbaa !132
  %54 = getelementptr inbounds nuw %struct.AVFrame, ptr %53, i32 0, i32 0
  %55 = getelementptr inbounds [8 x ptr], ptr %54, i64 0, i64 0
  call void @llvm.memcpy.p0.p0.i64(ptr align 8 %52, ptr align 8 %55, i64 64, i1 false)
  %56 = load ptr, ptr %4, align 8, !tbaa !132
  %57 = getelementptr inbounds nuw %struct.AVFrame, ptr %56, i32 0, i32 1
  %58 = getelementptr inbounds [8 x i32], ptr %57, i64 0, i64 0
  %59 = load ptr, ptr %5, align 8, !tbaa !132
  %60 = getelementptr inbounds nuw %struct.AVFrame, ptr %59, i32 0, i32 1
  %61 = getelementptr inbounds [8 x i32], ptr %60, i64 0, i64 0
  call void @llvm.memcpy.p0.p0.i64(ptr align 8 %58, ptr align 8 %61, i64 32, i1 false)
  store i32 0, ptr %3, align 4
  br label %62

62:                                               ; preds = %49, %47
  %63 = load i32, ptr %3, align 4
  ret i32 %63

64:                                               ; preds = %47
  unreachable
}