; Function Attrs: nounwind uwtable
define internal fastcc range(i32 -12, 1) i32 @frame_ref(ptr noundef nonnull writeonly captures(none) %0, ptr noundef nonnull readonly captures(none) %1) unnamed_addr #0 {
  %3 = getelementptr inbounds nuw i8, ptr %1, i64 184
  %4 = getelementptr inbounds nuw i8, ptr %0, i64 184
  br label %5

5:                                                ; preds = %2, %11
  %indvars.iv = phi i64 [ 0, %2 ], [ %indvars.iv.next, %11 ]
  %6 = getelementptr inbounds nuw [8 x ptr], ptr %3, i64 0, i64 %indvars.iv
  %7 = load ptr, ptr %6, align 8, !tbaa !122
  %.not = icmp eq ptr %7, null
  br i1 %.not, label %11, label %8

8:                                                ; preds = %5
  %9 = tail call ptr @av_buffer_ref(ptr noundef nonnull %7) #11
  %10 = getelementptr inbounds nuw [8 x ptr], ptr %4, i64 0, i64 %indvars.iv
  store ptr %9, ptr %10, align 8, !tbaa !122
  %.not19 = icmp eq ptr %9, null
  br i1 %.not19, label %.loopexit, label %11

11:                                               ; preds = %8, %5
  %indvars.iv.next = add nuw nsw i64 %indvars.iv, 1
  %exitcond.not = icmp eq i64 %indvars.iv.next, 8
  br i1 %exitcond.not, label %12, label %5, !llvm.loop !205

12:                                               ; preds = %11
  tail call void @llvm.memcpy.p0.p0.i64(ptr noundef nonnull align 8 dereferenceable(64) %0, ptr noundef nonnull align 8 dereferenceable(64) %1, i64 64, i1 false)
  %13 = getelementptr inbounds nuw i8, ptr %0, i64 64
  %14 = getelementptr inbounds nuw i8, ptr %1, i64 64
  tail call void @llvm.memcpy.p0.p0.i64(ptr noundef nonnull align 8 dereferenceable(32) %13, ptr noundef nonnull align 8 dereferenceable(32) %14, i64 32, i1 false)
  br label %.loopexit

.loopexit:                                        ; preds = %8, %12
  %.1 = phi i32 [ 0, %12 ], [ -12, %8 ]
  ret i32 %.1
}